; Function Attrs: nounwind uwtable
define ptr @l___private_Lean_Meta_AppBuilder_0__Lean_Meta_withAppBuilderTrace___at_Lean_Meta_mkAppM_x27___spec__1(ptr noundef %0, ptr noundef %1, ptr noundef %2, ptr noundef %3, ptr noundef %4, ptr noundef %5, ptr noundef %6, ptr noundef %7) local_unnamed_addr #0 {
  tail call void @lean_inc_heartbeat() #5
  %9 = tail call noalias ptr @mi_malloc_small(i64 noundef 40) #5
  %10 = icmp eq ptr %9, null
  br i1 %10, label %11, label %lean_alloc_closure.exit

11:                                               ; preds = %8
  tail call void @lean_internal_panic_out_of_memory() #6
  unreachable

lean_alloc_closure.exit:                          ; preds = %8
  %12 = getelementptr inbounds nuw i8, ptr %9, i64 4
  store i32 1, ptr %9, align 4, !tbaa !4
  store i32 -184549336, ptr %12, align 4
  %13 = getelementptr inbounds nuw i8, ptr %9, i64 8
  store ptr @l___private_Lean_Meta_AppBuilder_0__Lean_Meta_withAppBuilderTrace___at_Lean_Meta_mkAppM_x27___spec__1___lambda__1___boxed, ptr %13, align 8, !tbaa !10
  %14 = getelementptr inbounds nuw i8, ptr %9, i64 16
  store i16 8, ptr %14, align 8, !tbaa !15
  %15 = getelementptr inbounds nuw i8, ptr %9, i64 18
  store i16 2, ptr %15, align 2, !tbaa !15
  %16 = getelementptr inbounds nuw i8, ptr %9, i64 24
  store ptr %0, ptr %16, align 8, !tbaa !10
  %17 = getelementptr inbounds nuw i8, ptr %9, i64 32
  store ptr %1, ptr %17, align 8, !tbaa !10
  tail call void @lean_inc_heartbeat() #5
  %18 = tail call noalias ptr @mi_malloc_small(i64 noundef 32) #5
  %19 = icmp eq ptr %18, null
  br i1 %19, label %20, label %lean_alloc_closure.exit16

20:                                               ; preds = %lean_alloc_closure.exit
  tail call void @lean_internal_panic_out_of_memory() #6
  unreachable

lean_alloc_closure.exit16:                        ; preds = %lean_alloc_closure.exit
  %21 = getelementptr inbounds nuw i8, ptr %18, i64 4
  store i32 1, ptr %18, align 4, !tbaa !4
  store i32 -184549344, ptr %21, align 4
  %22 = getelementptr inbounds nuw i8, ptr %18, i64 8
  store ptr @l___private_Lean_Meta_AppBuilder_0__Lean_Meta_withAppBuilderTrace___rarg___lambda__3, ptr %22, align 8, !tbaa !10
  %23 = getelementptr inbounds nuw i8, ptr %18, i64 16
  store i16 6, ptr %23, align 8, !tbaa !15
  %24 = getelementptr inbounds nuw i8, ptr %18, i64 18
  store i16 1, ptr %24, align 2, !tbaa !15
  %25 = getelementptr inbounds nuw i8, ptr %18, i64 24
  store ptr %2, ptr %25, align 8, !tbaa !10
  %26 = load ptr, ptr @l___private_Lean_Meta_AppBuilder_0__Lean_Meta_withAppBuilderTrace___rarg___closed__1, align 8, !tbaa !10
  %27 = load ptr, ptr @l___private_Lean_Meta_AppBuilder_0__Lean_Meta_hasTypeMsg___closed__1, align 8, !tbaa !10
  %28 = tail call ptr @l_Lean_withTraceNode___at_Lean_Meta_whnfImp___spec__1(ptr noundef %26, ptr noundef nonnull %9, ptr noundef nonnull %18, i8 noundef zeroext 1, ptr noundef %27, ptr noundef %3, ptr noundef %4, ptr noundef %5, ptr noundef %6, ptr noundef %7) #5
  ret ptr %28
}